target datalayout = "e-m:e-p270:32:32-p271:32:32-p272:64:64-i64:64-i128:128-f80:128-n8:16:32:64-S128"
target triple = "x86_64-pc-linux-gnu"

@CodepointToUTF8.utf8 = internal global [6 x i8] zeroinitializer, align 1

; Function Attrs: nounwind uwtable
define ptr @CodepointToUTF8(i32 noundef %0, ptr noundef %1) #0 {
  %3 = alloca i32, align 4
  %4 = alloca ptr, align 8
  %5 = alloca i32, align 4
  store i32 %0, ptr %3, align 4
  store ptr %1, ptr %4, align 8
  call void @llvm.memset.p0.i64(ptr align 1 @CodepointToUTF8.utf8, i8 0, i64 6, i1 false)
  call void @llvm.lifetime.start.p0(i64 4, ptr %5) #13
  store i32 0, ptr %5, align 4
  %6 = load i32, ptr %3, align 4
  %7 = icmp sle i32 %6, 127
  br i1 %7, label %8, label %11

8:                                                ; preds = %2
  %9 = load i32, ptr %3, align 4
  %10 = trunc i32 %9 to i8
  store i8 %10, ptr @CodepointToUTF8.utf8, align 1
  store i32 1, ptr %5, align 4
  br label %68

11:                                               ; preds = %2
  %12 = load i32, ptr %3, align 4
  %13 = icmp sle i32 %12, 2047
  br i1 %13, label %14, label %24

14:                                               ; preds = %11
  %15 = load i32, ptr %3, align 4
  %16 = ashr i32 %15, 6
  %17 = and i32 %16, 31
  %18 = or i32 %17, 192
  %19 = trunc i32 %18 to i8
  store i8 %19, ptr @CodepointToUTF8.utf8, align 1
  %20 = load i32, ptr %3, align 4
  %21 = and i32 %20, 63
  %22 = or i32 %21, 128
  %23 = trunc i32 %22 to i8
  store i8 %23, ptr getelementptr inbounds ([6 x i8], ptr @CodepointToUTF8.utf8, i64 0, i64 1), align 1
  store i32 2, ptr %5, align 4
  br label %67

24:                                               ; preds = %11
  %25 = load i32, ptr %3, align 4
  %26 = icmp sle i32 %25, 65535
  br i1 %26, label %27, label %42

27:                                               ; preds = %24
  %28 = load i32, ptr %3, align 4
  %29 = ashr i32 %28, 12
  %30 = and i32 %29, 15
  %31 = or i32 %30, 224
  %32 = trunc i32 %31 to i8
  store i8 %32, ptr @CodepointToUTF8.utf8, align 1
  %33 = load i32, ptr %3, align 4
  %34 = ashr i32 %33, 6
  %35 = and i32 %34, 63
  %36 = or i32 %35, 128
  %37 = trunc i32 %36 to i8
  store i8 %37, ptr getelementptr inbounds ([6 x i8], ptr @CodepointToUTF8.utf8, i64 0, i64 1), align 1
  %38 = load i32, ptr %3, align 4
  %39 = and i32 %38, 63
  %40 = or i32 %39, 128
  %41 = trunc i32 %40 to i8
  store i8 %41, ptr getelementptr inbounds ([6 x i8], ptr @CodepointToUTF8.utf8, i64 0, i64 2), align 1
  store i32 3, ptr %5, align 4
  br label %66

42:                                               ; preds = %24
  %43 = load i32, ptr %3, align 4
  %44 = icmp sle i32 %43, 1114111
  br i1 %44, label %45, label %65

45:                                               ; preds = %42
  %46 = load i32, ptr %3, align 4
  %47 = ashr i32 %46, 18
  %48 = and i32 %47, 7
  %49 = or i32 %48, 240
  %50 = trunc i32 %49 to i8
  store i8 %50, ptr @CodepointToUTF8.utf8, align 1
  %51 = load i32, ptr %3, align 4
  %52 = ashr i32 %51, 12
  %53 = and i32 %52, 63
  %54 = or i32 %53, 128
  %55 = trunc i32 %54 to i8
  store i8 %55, ptr getelementptr inbounds ([6 x i8], ptr @CodepointToUTF8.utf8, i64 0, i64 1), align 1
  %56 = load i32, ptr %3, align 4
  %57 = ashr i32 %56, 6
  %58 = and i32 %57, 63
  %59 = or i32 %58, 128
  %60 = trunc i32 %59 to i8
  store i8 %60, ptr getelementptr inbounds ([6 x i8], ptr @CodepointToUTF8.utf8, i64 0, i64 2), align 1
  %61 = load i32, ptr %3, align 4
  %62 = and i32 %61, 63
  %63 = or i32 %62, 128
  %64 = trunc i32 %63 to i8
  store i8 %64, ptr getelementptr inbounds ([6 x i8], ptr @CodepointToUTF8.utf8, i64 0, i64 3), align 1
  store i32 4, ptr %5, align 4
  br label %65

65:                                               ; preds = %45, %42
  br label %66

66:                                               ; preds = %65, %27
  br label %67

67:                                               ; preds = %66, %14
  br label %68

68:                                               ; preds = %67, %8
  %69 = load i32, ptr %5, align 4
  %70 = load ptr, ptr %4, align 8
  store i32 %69, ptr %70, align 4
  call void @llvm.lifetime.end.p0(i64 4, ptr %5) #13
  ret ptr @CodepointToUTF8.utf8
}