; Function Attrs: mustprogress nofree norecurse nosync nounwind willreturn memory(write, inaccessiblemem: none) uwtable
define noundef nonnull ptr @CodepointToUTF8(i32 noundef %0, ptr noundef writeonly captures(none) initializes((0, 4)) %1) local_unnamed_addr #32 {
  tail call void @llvm.memset.p0.i64(ptr noundef nonnull align 1 dereferenceable(6) @CodepointToUTF8.utf8, i8 0, i64 6, i1 false)
  %3 = icmp slt i32 %0, 128
  br i1 %3, label %4, label %6

4:                                                ; preds = %2
  %5 = trunc i32 %0 to i8
  store i8 %5, ptr @CodepointToUTF8.utf8, align 1
  br label %45

6:                                                ; preds = %2
  %7 = icmp samesign ult i32 %0, 2048
  br i1 %7, label %8, label %15

8:                                                ; preds = %6
  %9 = lshr i32 %0, 6
  %10 = trunc nuw i32 %9 to i8
  %11 = or disjoint i8 %10, -64
  store i8 %11, ptr @CodepointToUTF8.utf8, align 1
  %12 = trunc i32 %0 to i8
  %13 = and i8 %12, 63
  %14 = or disjoint i8 %13, -128
  store i8 %14, ptr getelementptr inbounds nuw (i8, ptr @CodepointToUTF8.utf8, i64 1), align 1
  br label %45

15:                                               ; preds = %6
  %16 = icmp samesign ult i32 %0, 65536
  br i1 %16, label %17, label %28

17:                                               ; preds = %15
  %18 = lshr i32 %0, 12
  %19 = trunc nuw i32 %18 to i8
  %20 = or disjoint i8 %19, -32
  store i8 %20, ptr @CodepointToUTF8.utf8, align 1
  %21 = lshr i32 %0, 6
  %22 = trunc i32 %21 to i8
  %23 = and i8 %22, 63
  %24 = or disjoint i8 %23, -128
  store i8 %24, ptr getelementptr inbounds nuw (i8, ptr @CodepointToUTF8.utf8, i64 1), align 1
  %25 = trunc i32 %0 to i8
  %26 = and i8 %25, 63
  %27 = or disjoint i8 %26, -128
  store i8 %27, ptr getelementptr inbounds nuw (i8, ptr @CodepointToUTF8.utf8, i64 2), align 1
  br label %45

28:                                               ; preds = %15
  %29 = icmp samesign ult i32 %0, 1114112
  br i1 %29, label %30, label %45

30:                                               ; preds = %28
  %31 = lshr i32 %0, 18
  %32 = trunc nuw i32 %31 to i8
  %33 = or disjoint i8 %32, -16
  store i8 %33, ptr @CodepointToUTF8.utf8, align 1
  %34 = lshr i32 %0, 12
  %35 = trunc i32 %34 to i8
  %36 = and i8 %35, 63
  %37 = or disjoint i8 %36, -128
  store i8 %37, ptr getelementptr inbounds nuw (i8, ptr @CodepointToUTF8.utf8, i64 1), align 1
  %38 = lshr i32 %0, 6
  %39 = trunc i32 %38 to i8
  %40 = and i8 %39, 63
  %41 = or disjoint i8 %40, -128
  store i8 %41, ptr getelementptr inbounds nuw (i8, ptr @CodepointToUTF8.utf8, i64 2), align 1
  %42 = trunc i32 %0 to i8
  %43 = and i8 %42, 63
  %44 = or disjoint i8 %43, -128
  store i8 %44, ptr getelementptr inbounds nuw (i8, ptr @CodepointToUTF8.utf8, i64 3), align 1
  br label %45

45:                                               ; preds = %8, %28, %30, %17, %4
  %.0 = phi i32 [ 1, %4 ], [ 2, %8 ], [ 3, %17 ], [ 4, %30 ], [ 0, %28 ]
  store i32 %.0, ptr %1, align 4
  ret ptr @CodepointToUTF8.utf8
}